; Function Attrs: mustprogress uwtable
define dso_local void @_ZN4i18n12phonenumbers11UnicodeTextC2ERKNS1_14const_iteratorES4_(ptr noundef nonnull writeonly align 8 captures(none) dereferenceable(24) initializes((0, 18)) %0, ptr noundef nonnull readonly align 8 captures(none) dereferenceable(8) %1, ptr noundef nonnull readonly align 8 captures(none) dereferenceable(8) %2) unnamed_addr #1 align 2 personality ptr @__gxx_personality_v0 {
  %4 = getelementptr inbounds nuw i8, ptr %0, i64 16
  tail call void @llvm.memset.p0.i64(ptr noundef nonnull align 8 dereferenceable(18) %0, i8 0, i64 16, i1 false)
  store i8 1, ptr %4, align 8, !tbaa !17
  %5 = getelementptr inbounds nuw i8, ptr %0, i64 17
  store i8 1, ptr %5, align 1, !tbaa !43
  %6 = load ptr, ptr %1, align 8, !tbaa !4
  %7 = load ptr, ptr %2, align 8, !tbaa !4
  %8 = ptrtoint ptr %7 to i64
  %9 = ptrtoint ptr %6 to i64
  %10 = sub i64 %8, %9
  %11 = trunc i64 %10 to i32
  %.not.i.i = icmp sgt i32 %11, 0
  br i1 %.not.i.i, label %.noexc, label %._ZN4i18n12phonenumbers11UnicodeText4Repr7reserveEi.exit_crit_edge.i

.noexc:                                           ; preds = %3
  %12 = getelementptr inbounds nuw i8, ptr %0, i64 12
  %13 = tail call i32 @llvm.umax.i32(i32 %11, i32 20)
  store i32 %13, ptr %12, align 4, !tbaa !13
  %14 = zext nneg i32 %13 to i64
  %15 = tail call noalias noundef nonnull ptr @_Znam(i64 noundef %14) #25
  store ptr %15, ptr %0, align 8, !tbaa !20
  store i8 1, ptr %4, align 8, !tbaa !17
  br label %._ZN4i18n12phonenumbers11UnicodeText4Repr7reserveEi.exit_crit_edge.i

._ZN4i18n12phonenumbers11UnicodeText4Repr7reserveEi.exit_crit_edge.i: ; preds = %3, %.noexc
  %16 = phi ptr [ %15, %.noexc ], [ null, %3 ]
  %17 = getelementptr inbounds nuw i8, ptr %0, i64 8
  %sext = shl i64 %10, 32
  %18 = ashr exact i64 %sext, 32
  tail call void @llvm.memcpy.p0.p0.i64(ptr align 1 %16, ptr readonly align 1 %6, i64 %18, i1 false)
  store i32 %11, ptr %17, align 8, !tbaa !21
  ret void
}